target datalayout = "e-m:e-p270:32:32-p271:32:32-p272:64:64-i64:64-i128:128-f80:128-n8:16:32:64-S128"
target triple = "x86_64-pc-linux-gnu"

; Function Attrs: nounwind uwtable
define internal void @apply_contrast_change8(ptr noundef %0, i64 noundef %1, ptr noundef %2, i64 noundef %3, i32 noundef %4, i32 noundef %5, ptr noundef %6, ptr noundef %7) #1 {
  %9 = alloca ptr, align 8
  %10 = alloca i64, align 8
  %11 = alloca ptr, align 8
  %12 = alloca i64, align 8
  %13 = alloca i32, align 4
  %14 = alloca i32, align 4
  %15 = alloca ptr, align 8
  %16 = alloca ptr, align 8
  %17 = alloca i32, align 4
  %18 = alloca i32, align 4
  %19 = alloca i32, align 4
  store ptr %0, ptr %9, align 8, !tbaa !51
  store i64 %1, ptr %10, align 8, !tbaa !90
  store ptr %2, ptr %11, align 8, !tbaa !51
  store i64 %3, ptr %12, align 8, !tbaa !90
  store i32 %4, ptr %13, align 4, !tbaa !28
  store i32 %5, ptr %14, align 4, !tbaa !28
  store ptr %6, ptr %15, align 8, !tbaa !52
  store ptr %7, ptr %16, align 8, !tbaa !52
  call void @llvm.lifetime.start.p0(i64 4, ptr %17) #8
  store i32 0, ptr %17, align 4, !tbaa !28
  br label %20

20:                                               ; preds = %57, %8
  %21 = load i32, ptr %17, align 4, !tbaa !28
  %22 = load i32, ptr %14, align 4, !tbaa !28
  %23 = icmp slt i32 %21, %22
  br i1 %23, label %25, label %24

24:                                               ; preds = %20
  store i32 2, ptr %18, align 4
  call void @llvm.lifetime.end.p0(i64 4, ptr %17) #8
  br label %60

25:                                               ; preds = %20
  call void @llvm.lifetime.start.p0(i64 4, ptr %19) #8
  store i32 0, ptr %19, align 4, !tbaa !28
  br label %26

26:                                               ; preds = %47, %25
  %27 = load i32, ptr %19, align 4, !tbaa !28
  %28 = load i32, ptr %13, align 4, !tbaa !28
  %29 = icmp slt i32 %27, %28
  br i1 %29, label %31, label %30

30:                                               ; preds = %26
  store i32 5, ptr %18, align 4
  call void @llvm.lifetime.end.p0(i64 4, ptr %19) #8
  br label %50

31:                                               ; preds = %26
  %32 = load ptr, ptr %15, align 8, !tbaa !52
  %33 = load ptr, ptr %9, align 8, !tbaa !51
  %34 = load i32, ptr %19, align 4, !tbaa !28
  %35 = sext i32 %34 to i64
  %36 = getelementptr inbounds i8, ptr %33, i64 %35
  %37 = load i8, ptr %36, align 1, !tbaa !91
  %38 = zext i8 %37 to i64
  %39 = getelementptr inbounds nuw float, ptr %32, i64 %38
  %40 = load float, ptr %39, align 4, !tbaa !73
  %41 = call i64 @llvm.lrint.i64.f32(float %40)
  %42 = trunc i64 %41 to i8
  %43 = load ptr, ptr %11, align 8, !tbaa !51
  %44 = load i32, ptr %19, align 4, !tbaa !28
  %45 = sext i32 %44 to i64
  %46 = getelementptr inbounds i8, ptr %43, i64 %45
  store i8 %42, ptr %46, align 1, !tbaa !91
  br label %47

47:                                               ; preds = %31
  %48 = load i32, ptr %19, align 4, !tbaa !28
  %49 = add nsw i32 %48, 1
  store i32 %49, ptr %19, align 4, !tbaa !28
  br label %26, !llvm.loop !104

50:                                               ; preds = %30
  %51 = load i64, ptr %12, align 8, !tbaa !90
  %52 = load ptr, ptr %11, align 8, !tbaa !51
  %53 = getelementptr inbounds i8, ptr %52, i64 %51
  store ptr %53, ptr %11, align 8, !tbaa !51
  %54 = load i64, ptr %10, align 8, !tbaa !90
  %55 = load ptr, ptr %9, align 8, !tbaa !51
  %56 = getelementptr inbounds i8, ptr %55, i64 %54
  store ptr %56, ptr %9, align 8, !tbaa !51
  br label %57

57:                                               ; preds = %50
  %58 = load i32, ptr %17, align 4, !tbaa !28
  %59 = add nsw i32 %58, 1
  store i32 %59, ptr %17, align 4, !tbaa !28
  br label %20, !llvm.loop !105

60:                                               ; preds = %24
  ret void
}