; Function Attrs: nofree norecurse nosync nounwind memory(argmem: readwrite) uwtable
define internal void @apply_contrast_change8(ptr noundef readonly captures(none) %0, i64 noundef %1, ptr noundef writeonly captures(none) %2, i64 noundef %3, i32 noundef %4, i32 noundef %5, ptr noundef readonly captures(none) %6, ptr readnone captures(none) %7) #7 {
  %9 = icmp sgt i32 %5, 0
  %10 = icmp sgt i32 %4, 0
  %or.cond = and i1 %9, %10
  br i1 %or.cond, label %.preheader.us.preheader, label %._crit_edge21

.preheader.us.preheader:                          ; preds = %8
  %wide.trip.count = zext nneg i32 %4 to i64
  br label %.preheader.us

.preheader.us:                                    ; preds = %.preheader.us.preheader, %._crit_edge.us
  %.01420.us = phi i32 [ %22, %._crit_edge.us ], [ 0, %.preheader.us.preheader ]
  %.01519.us = phi ptr [ %21, %._crit_edge.us ], [ %0, %.preheader.us.preheader ]
  %.01618.us = phi ptr [ %20, %._crit_edge.us ], [ %2, %.preheader.us.preheader ]
  br label %11

11:                                               ; preds = %.preheader.us, %11
  %indvars.iv = phi i64 [ 0, %.preheader.us ], [ %indvars.iv.next, %11 ]
  %12 = getelementptr inbounds nuw i8, ptr %.01519.us, i64 %indvars.iv
  %13 = load i8, ptr %12, align 1, !tbaa !83
  %14 = zext i8 %13 to i64
  %15 = getelementptr inbounds nuw float, ptr %6, i64 %14
  %16 = load float, ptr %15, align 4, !tbaa !64
  %17 = tail call i64 @llvm.lrint.i64.f32(float %16)
  %18 = trunc i64 %17 to i8
  %19 = getelementptr inbounds nuw i8, ptr %.01618.us, i64 %indvars.iv
  store i8 %18, ptr %19, align 1, !tbaa !83
  %indvars.iv.next = add nuw nsw i64 %indvars.iv, 1
  %exitcond.not = icmp eq i64 %indvars.iv.next, %wide.trip.count
  br i1 %exitcond.not, label %._crit_edge.us, label %11, !llvm.loop !94

._crit_edge.us:                                   ; preds = %11
  %20 = getelementptr inbounds i8, ptr %.01618.us, i64 %3
  %21 = getelementptr inbounds i8, ptr %.01519.us, i64 %1
  %22 = add nuw nsw i32 %.01420.us, 1
  %exitcond24.not = icmp eq i32 %22, %5
  br i1 %exitcond24.not, label %._crit_edge21, label %.preheader.us, !llvm.loop !95

._crit_edge21:                                    ; preds = %._crit_edge.us, %8
  ret void
}